target datalayout = "e-m:e-p270:32:32-p271:32:32-p272:64:64-i64:64-i128:128-f80:128-n8:16:32:64-S128"
target triple = "x86_64-pc-linux-gnu"

%struct.sockaddr = type { i16, [14 x i8] }
%struct.sockaddr_in = type { i16, i16, %struct.in_addr, [8 x i8] }
%struct.in_addr = type { i32 }
%struct.sockaddr_in6 = type { i16, i16, i32, %struct.in6_addr, i32 }
%struct.in6_addr = type { %union.anon }
%union.anon = type { [4 x i32] }

; Function Attrs: nounwind uwtable
define zeroext i16 @BIO_ADDR_rawport(ptr noundef %0) #0 {
  %2 = alloca i16, align 2
  %3 = alloca ptr, align 8
  store ptr %0, ptr %3, align 8, !tbaa !3
  %4 = load ptr, ptr %3, align 8, !tbaa !3
  %5 = getelementptr inbounds nuw %struct.sockaddr, ptr %4, i32 0, i32 0
  %6 = load i16, ptr %5, align 4, !tbaa !8
  %7 = zext i16 %6 to i32
  %8 = icmp eq i32 %7, 2
  br i1 %8, label %9, label %13

9:                                                ; preds = %1
  %10 = load ptr, ptr %3, align 8, !tbaa !3
  %11 = getelementptr inbounds nuw %struct.sockaddr_in, ptr %10, i32 0, i32 1
  %12 = load i16, ptr %11, align 2, !tbaa !8
  store i16 %12, ptr %2, align 2
  br label %24

13:                                               ; preds = %1
  %14 = load ptr, ptr %3, align 8, !tbaa !3
  %15 = getelementptr inbounds nuw %struct.sockaddr, ptr %14, i32 0, i32 0
  %16 = load i16, ptr %15, align 4, !tbaa !8
  %17 = zext i16 %16 to i32
  %18 = icmp eq i32 %17, 10
  br i1 %18, label %19, label %23

19:                                               ; preds = %13
  %20 = load ptr, ptr %3, align 8, !tbaa !3
  %21 = getelementptr inbounds nuw %struct.sockaddr_in6, ptr %20, i32 0, i32 1
  %22 = load i16, ptr %21, align 2, !tbaa !8
  store i16 %22, ptr %2, align 2
  br label %24

23:                                               ; preds = %13
  store i16 0, ptr %2, align 2
  br label %24

24:                                               ; preds = %23, %19, %9
  %25 = load i16, ptr %2, align 2
  ret i16 %25
}