; Function Attrs: mustprogress nofree norecurse nosync nounwind willreturn memory(argmem: read) uwtable
define zeroext i16 @BIO_ADDR_rawport(ptr noundef readonly captures(none) %0) local_unnamed_addr #9 {
  %2 = load i16, ptr %0, align 4, !tbaa !3
  switch i16 %2, label %5 [
    i16 2, label %.sink.split
    i16 10, label %.sink.split
  ]

.sink.split:                                      ; preds = %1, %1
  %3 = getelementptr inbounds nuw i8, ptr %0, i64 2
  %4 = load i16, ptr %3, align 2, !tbaa !3
  br label %5

5:                                                ; preds = %.sink.split, %1
  %.0 = phi i16 [ 0, %1 ], [ %4, %.sink.split ]
  ret i16 %.0
}